; Function Attrs: mustprogress nofree norecurse nosync nounwind willreturn memory(none) uwtable
define noundef nonnull ptr @_ZN4LIEF2PE9to_stringENS0_19ResourceAccelerator5FLAGSE(i32 noundef %0) local_unnamed_addr #5 {
  switch i32 %0, label %7 [
    i32 1, label %8
    i32 2, label %2
    i32 4, label %3
    i32 8, label %4
    i32 16, label %5
    i32 128, label %6
  ]

2:                                                ; preds = %1
  br label %8

3:                                                ; preds = %1
  br label %8

4:                                                ; preds = %1
  br label %8

5:                                                ; preds = %1
  br label %8

6:                                                ; preds = %1
  br label %8

7:                                                ; preds = %1
  br label %8

8:                                                ; preds = %1, %7, %6, %5, %4, %3, %2
  %.0 = phi ptr [ @.str.7, %7 ], [ @.str.6, %6 ], [ @.str.5, %5 ], [ @.str.4, %4 ], [ @.str.3, %3 ], [ @.str.2, %2 ], [ @.str.1, %1 ]
  ret ptr %.0
}